; Function Attrs: null_pointer_is_valid sspstrong uwtable
define internal fastcc void @add_ipv6_src_address(ptr noundef %0, ptr noundef %1, ptr noundef initializes((160, 184), (208, 232)) %2) unnamed_addr #0 {
  %4 = getelementptr inbounds nuw i8, ptr %2, i64 160
  %5 = tail call ptr @tvb_get_ptr(ptr noundef %1, i32 noundef 0, i32 noundef 16)
  store i32 3, ptr %4, align 8
  %6 = getelementptr inbounds nuw i8, ptr %2, i64 164
  store i32 16, ptr %6, align 4
  %7 = getelementptr inbounds nuw i8, ptr %2, i64 168
  store ptr %5, ptr %7, align 8
  %8 = getelementptr inbounds nuw i8, ptr %2, i64 176
  store ptr null, ptr %8, align 8
  %9 = getelementptr inbounds nuw i8, ptr %2, i64 208
  store i32 3, ptr %9, align 8
  %10 = getelementptr inbounds nuw i8, ptr %2, i64 212
  store i32 16, ptr %10, align 4
  %11 = getelementptr inbounds nuw i8, ptr %2, i64 216
  store ptr %5, ptr %11, align 8
  %12 = getelementptr inbounds nuw i8, ptr %2, i64 224
  store ptr null, ptr %12, align 8
  %.not = icmp eq ptr %0, null
  br i1 %.not, label %proto_item_set_hidden.exit36, label %13

13:                                               ; preds = %3
  %14 = getelementptr inbounds nuw i8, ptr %2, i64 408
  %15 = load ptr, ptr %14, align 8
  %16 = tail call ptr @address_to_display(ptr noundef %15, ptr noundef nonnull %4)
  %17 = load i32, ptr @hf_ipv6_src, align 4
  %18 = tail call ptr @proto_tree_add_item(ptr noundef nonnull %0, i32 noundef %17, ptr noundef %1, i32 noundef 0, i32 noundef 16, i32 noundef 0)
  %19 = load i32, ptr @hf_ipv6_addr, align 4
  %20 = tail call ptr @proto_tree_add_item(ptr noundef nonnull %0, i32 noundef %19, ptr noundef %1, i32 noundef 0, i32 noundef 16, i32 noundef 0)
  %.not.i = icmp eq ptr %20, null
  br i1 %.not.i, label %proto_item_set_hidden.exit, label %21

21:                                               ; preds = %13
  %22 = getelementptr inbounds nuw i8, ptr %20, i64 40
  %23 = load ptr, ptr %22, align 8
  %.not5.i = icmp eq ptr %23, null
  br i1 %.not5.i, label %proto_item_set_hidden.exit, label %24

24:                                               ; preds = %21
  %25 = getelementptr inbounds nuw i8, ptr %23, i64 28
  %26 = load i32, ptr %25, align 4
  %27 = or i32 %26, 1
  store i32 %27, ptr %25, align 4
  br label %proto_item_set_hidden.exit

proto_item_set_hidden.exit:                       ; preds = %13, %21, %24
  %28 = load i32, ptr @hf_ipv6_src_host, align 4
  %29 = tail call ptr @proto_tree_add_string(ptr noundef nonnull %0, i32 noundef %28, ptr noundef %1, i32 noundef 0, i32 noundef 16, ptr noundef %16)
  %.not.i26 = icmp eq ptr %29, null
  br i1 %.not.i26, label %proto_item_set_hidden.exit30, label %30

30:                                               ; preds = %proto_item_set_hidden.exit
  %31 = getelementptr inbounds nuw i8, ptr %29, i64 40
  %32 = load ptr, ptr %31, align 8
  %.not5.i27 = icmp eq ptr %32, null
  br i1 %.not5.i27, label %proto_item_set_hidden.exit30, label %33

33:                                               ; preds = %30
  %34 = getelementptr inbounds nuw i8, ptr %32, i64 28
  %35 = load i32, ptr %34, align 4
  %36 = or i32 %35, 2
  store i32 %36, ptr %34, align 4
  %.pre = load ptr, ptr %31, align 8
  %.not5.i29 = icmp eq ptr %.pre, null
  br i1 %.not5.i29, label %proto_item_set_hidden.exit30, label %37

37:                                               ; preds = %33
  %38 = getelementptr inbounds nuw i8, ptr %.pre, i64 28
  %39 = load i32, ptr %38, align 4
  %40 = or i32 %39, 1
  store i32 %40, ptr %38, align 4
  br label %proto_item_set_hidden.exit30

proto_item_set_hidden.exit30:                     ; preds = %30, %proto_item_set_hidden.exit, %33, %37
  %41 = load i32, ptr @hf_ipv6_host, align 4
  %42 = tail call ptr @proto_tree_add_string(ptr noundef nonnull %0, i32 noundef %41, ptr noundef %1, i32 noundef 0, i32 noundef 16, ptr noundef %16)
  %.not.i31 = icmp eq ptr %42, null
  br i1 %.not.i31, label %proto_item_set_hidden.exit36, label %43

43:                                               ; preds = %proto_item_set_hidden.exit30
  %44 = getelementptr inbounds nuw i8, ptr %42, i64 40
  %45 = load ptr, ptr %44, align 8
  %.not5.i32 = icmp eq ptr %45, null
  br i1 %.not5.i32, label %proto_item_set_hidden.exit36, label %46

46:                                               ; preds = %43
  %47 = getelementptr inbounds nuw i8, ptr %45, i64 28
  %48 = load i32, ptr %47, align 4
  %49 = or i32 %48, 2
  store i32 %49, ptr %47, align 4
  %.pre37 = load ptr, ptr %44, align 8
  %.not5.i35 = icmp eq ptr %.pre37, null
  br i1 %.not5.i35, label %proto_item_set_hidden.exit36, label %50

50:                                               ; preds = %46
  %51 = getelementptr inbounds nuw i8, ptr %.pre37, i64 28
  %52 = load i32, ptr %51, align 4
  %53 = or i32 %52, 1
  store i32 %53, ptr %51, align 4
  br label %proto_item_set_hidden.exit36

proto_item_set_hidden.exit36:                     ; preds = %43, %50, %46, %proto_item_set_hidden.exit30, %3
  ret void
}